(dp0
S'aa'
p1
ccopy_reg
_reconstructor
p2
(csae.kvdb
_CacheEntry
p3
c__builtin__
object
p4
Ntp5
Rp6
(dp7
S'locked'
p8
I00
sS'value'
p9
(lp10
S'key0'
p11
asS'flags'
p12
I0
sS'expiration'
p13
F1448432744.695
sS'created_time'
p14
F1448432744.695
sS'will_expire'
p15
I00
sbsS'key9'
p16
g2
(g3
g4
Ntp17
Rp18
(dp19
g8
I00
sg9
(dp20
S'content'
p21
S'\xe4\xb8\xad\xe6\x96\x87'
p22
sS'tags'
p23
(lp24
S'NULL'
p25
asS'time'
p26
S'Wed Nov 25 14:32:54 2015'
p27
ssg12
I0
sg13
F1448433174.215
sg14
F1448433174.215
sg15
I00
sbsS'key8'
p28
g2
(g3
g4
Ntp29
Rp30
(dp31
g8
I00
sg9
(dp32
S'content'
p33
S'\xe4\xb8\xad\xe6\x96\x87'
p34
sS'time'
p35
S'Wed Nov 25 14:30:06 2015'
p36
sS'tags'
p37
(lp38
S'NULL'
p39
assg12
I0
sg13
F1448433006.82
sg14
F1448433006.82
sg15
I00
sbsS'key3'
p40
g2
(g3
g4
Ntp41
Rp42
(dp43
g8
I00
sg9
(dp44
S'content'
p45
S'aaaa'
p46
sS'tags'
p47
(lp48
S'NULL'
p49
asS'time'
p50
S'Wed Nov 25 14:26:18 2015'
p51
ssg12
I0
sg13
F1448432778.746
sg14
F1448432778.746
sg15
I00
sbsS'key2'
p52
g2
(g3
g4
Ntp53
Rp54
(dp55
g8
I00
sg9
(dp56
g45
S''
p57
sg47
(lp58
S'aaaaaa'
p59
asg50
S'Wed Nov 25 14:26:14 2015'
p60
ssg12
I0
sg13
F1448432774.064
sg14
F1448432774.064
sg15
I00
sbsS'key1'
p61
g2
(g3
g4
Ntp62
Rp63
(dp64
g8
I00
sg9
(dp65
g45
g57
sg47
(lp66
S'aaaa'
p67
asg50
S'Wed Nov 25 14:26:07 2015'
p68
ssg12
I0
sg13
F1448432767.039
sg14
F1448432767.039
sg15
I00
sbsg11
g2
(g3
g4
Ntp69
Rp70
(dp71
g8
I00
sg9
(dp72
g45
Nsg47
(lp73
g1
asg50
S'Wed Nov 25 14:25:44 2015'
p74
ssg12
I0
sg13
F1448432744.695
sg14
F1448432744.695
sg15
I00
sbsS'key7'
p75
g2
(g3
g4
Ntp76
Rp77
(dp78
g8
I00
sg9
(dp79
S'content'
p80
S'\r\n\xe2\x95\xad\xef\xb8\xbf\xef\xb8\xbf\xef\xb8\xbf\xe2\x95\xae \r\n{/ o  o /}  \r\n ( (oo) )   \r\n  \xef\xb8\xb6 \xef\xb8\xb6\xef\xb8\xb6'
p81
sS'time'
p82
S'Wed Nov 25 14:27:53 2015'
p83
sS'tags'
p84
(lp85
S'a'
p86
assg12
I0
sg13
F1448432873.886
sg14
F1448432873.886
sg15
I00
sbsS'key6'
p87
g2
(g3
g4
Ntp88
Rp89
(dp90
g8
I00
sg9
(dp91
g80
S'\xe5\x95\x8a\xe5\x95\x8a\r\n\r\n\r\n\r\n\r\n\r\n\r\n\r\n\r\n\r\n\r\n\r\n\r\n\r\n\r\n'
p92
sg82
S'Wed Nov 25 14:27:37 2015'
p93
sg84
(lp94
S'NULL'
p95
assg12
I0
sg13
F1448432857.495
sg14
F1448432857.495
sg15
I00
sbsS'key5'
p96
g2
(g3
g4
Ntp97
Rp98
(dp99
g8
I00
sg9
(dp100
g80
S'\xe4\xb8\xad\xe6\x96\x87'
p101
sg82
S'Wed Nov 25 14:27:25 2015'
p102
sg84
(lp103
g95
assg12
I0
sg13
F1448432845.106
sg14
F1448432845.106
sg15
I00
sbsS'key4'
p104
g2
(g3
g4
Ntp105
Rp106
(dp107
g8
I00
sg9
(dp108
g45
S'\xe4\xb8\xad\xe6\x96\x87'
p109
sg47
(lp110
g49
asg50
S'Wed Nov 25 14:26:27 2015'
p111
ssg12
I0
sg13
F1448432787.204
sg14
F1448432787.204
sg15
I00
sbsg67
g2
(g3
g4
Ntp112
Rp113
(dp114
g8
I00
sg9
(lp115
g61
asg12
I0
sg13
F1448432767.039
sg14
F1448432767.039
sg15
I00
sbsS'globalvar_id'
p116
g2
(g3
g4
Ntp117
Rp118
(dp119
g8
I00
sg9
I15
sg12
I0
sg13
F1448433455.409
sg14
F1448433455.409
sg15
I00
sbsg49
g2
(g3
g4
Ntp120
Rp121
(dp122
g8
I00
sg9
(lp123
g40
ag104
ag96
ag87
ag28
ag16
aS'key10'
p124
aS'key11'
p125
aS'key12'
p126
aS'key13'
p127
aS'key14'
p128
asg12
I0
sg13
F1448433455.409
sg14
F1448433455.409
sg15
I00
sbsg127
g2
(g3
g4
Ntp129
Rp130
(dp131
g8
I00
sg9
(dp132
S'content'
p133
S'\r\n                    /^\\/^\\\r\n                  _|__|  O|\r\n         \\/     /~     \\_/ \\\r\n          \\____|__________/  \\\r\n                 \\_______      \\\r\n                         `\\     \\                 \\\r\n                           |     |                  \\\r\n                          /      /                    \\\r\n                         /     /                       \\\\\r\n                       /      /                         \\ \\\r\n                      /     /                            \\  \\\r\n                    /     /             _----_            \\   \\\r\n                   /     /           _-~      ~-_         |   |\r\n                  (      (        _-~    _--_    ~-_     _/   |\r\n                   \\      ~-____-~    _-~    ~-_    ~-_-~    /\r\n                     ~-_           _-~          ~-_       _-~   \r\n                        ~--______-~                ~-___-~'
p134
sS'time'
p135
S'Wed Nov 25 14:35:44 2015'
p136
sS'tags'
p137
(lp138
S'NULL'
p139
assg12
I0
sg13
F1448433344.807
sg14
F1448433344.807
sg15
I00
sbsg126
g2
(g3
g4
Ntp140
Rp141
(dp142
g8
I00
sg9
(dp143
g21
S'\r\n                    /^\\/^\\\r\n                  _|__|  O|\r\n         \\/     /~     \\_/ \\\r\n          \\____|__________/  \\\r\n                 \\_______      \\\r\n                         `\\     \\                 \\\r\n                           |     |                  \\\r\n                          /      /                    \\\r\n                         /     /                       \\\\\r\n                       /      /                         \\ \\\r\n                      /     /                            \\  \\\r\n                    /     /             _----_            \\   \\\r\n                   /     /           _-~      ~-_         |   |\r\n                  (      (        _-~    _--_    ~-_     _/   |\r\n                   \\      ~-____-~    _-~    ~-_    ~-_-~    /\r\n                     ~-_           _-~          ~-_       _-~   \r\n                        ~--______-~                ~-___-~'
p144
sg23
(lp145
g25
asg26
S'Wed Nov 25 14:33:37 2015'
p146
ssg12
I0
sg13
F1448433217.655
sg14
F1448433217.655
sg15
I00
sbsg125
g2
(g3
g4
Ntp147
Rp148
(dp149
g8
I00
sg9
(dp150
g21
S"\r\n            \\\\\r\n             \\\\_\r\n          .---(')\r\n        o( )_-\\_"
p151
sg23
(lp152
g25
asg26
S'Wed Nov 25 14:33:31 2015'
p153
ssg12
I0
sg13
F1448433211.35
sg14
F1448433211.35
sg15
I00
sbsg124
g2
(g3
g4
Ntp154
Rp155
(dp156
g8
I00
sg9
(dp157
g21
S'\xe4\xb8\xad\xe6\x96\x87'
p158
sg23
(lp159
g25
asg26
S'Wed Nov 25 14:33:00 2015'
p160
ssg12
I0
sg13
F1448433180.064
sg14
F1448433180.064
sg15
I00
sbsg86
g2
(g3
g4
Ntp161
Rp162
(dp163
g8
I00
sg9
(lp164
g75
asg12
I0
sg13
F1448432873.886
sg14
F1448432873.886
sg15
I00
sbsg128
g2
(g3
g4
Ntp165
Rp166
(dp167
g8
I00
sg9
(dp168
S'content'
p169
S"\r\n            \\\\\r\n             \\\\_\r\n          .---(')\r\n        o( )_-\\_"
p170
sS'tags'
p171
(lp172
S'NULL'
p173
asS'time'
p174
S'Wed Nov 25 14:37:35 2015'
p175
ssg12
I0
sg13
F1448433455.409
sg14
F1448433455.409
sg15
I00
sbsS'globalvar_traffic'
p176
g2
(g3
g4
Ntp177
Rp178
(dp179
g8
I00
sg9
I64
sg12
I0
sg13
F1448434121.06
sg14
F1448434121.06
sg15
I00
sbsg59
g2
(g3
g4
Ntp180
Rp181
(dp182
g8
I00
sg9
(lp183
g52
asg12
I0
sg13
F1448432774.064
sg14
F1448432774.064
sg15
I00
sbs.