(dp0
S'aa'
p1
ccopy_reg
_reconstructor
p2
(csae.kvdb
_CacheEntry
p3
c__builtin__
object
p4
Ntp5
Rp6
(dp7
S'locked'
p8
I00
sS'value'
p9
(lp10
S'key0'
p11
asS'flags'
p12
I0
sS'expiration'
p13
F1448432744.695
sS'created_time'
p14
F1448432744.695
sS'will_expire'
p15
I00
sbsS'key9'
p16
g2
(g3
g4
Ntp17
Rp18
(dp19
g8
I00
sg9
(dp20
S'content'
p21
S'\xe4\xb8\xad\xe6\x96\x87'
p22
sS'tags'
p23
(lp24
S'NULL'
p25
asS'time'
p26
S'Wed Nov 25 14:32:54 2015'
p27
ssg12
I0
sg13
F1448433174.215
sg14
F1448433174.215
sg15
I00
sbsS'key8'
p28
g2
(g3
g4
Ntp29
Rp30
(dp31
g8
I00
sg9
(dp32
S'content'
p33
S'\xe4\xb8\xad\xe6\x96\x87'
p34
sS'time'
p35
S'Wed Nov 25 14:30:06 2015'
p36
sS'tags'
p37
(lp38
S'NULL'
p39
assg12
I0
sg13
F1448433006.82
sg14
F1448433006.82
sg15
I00
sbsS'key19'
p40
g2
(g3
g4
Ntp41
Rp42
(dp43
g8
I00
sg9
(dp44
S'content'
p45
S''
p46
sS'time'
p47
S'Wed Nov 25 15:12:26 2015'
p48
sS'tags'
p49
(lp50
S'NULL'
p51
assg12
I0
sg13
F1448435546.639
sg14
F1448435546.639
sg15
I00
sbsS'key3'
p52
g2
(g3
g4
Ntp53
Rp54
(dp55
g8
I00
sg9
(dp56
S'content'
p57
S'aaaa'
p58
sS'tags'
p59
(lp60
S'NULL'
p61
asS'time'
p62
S'Wed Nov 25 14:26:18 2015'
p63
ssg12
I0
sg13
F1448432778.746
sg14
F1448432778.746
sg15
I00
sbsS'key2'
p64
g2
(g3
g4
Ntp65
Rp66
(dp67
g8
I00
sg9
(dp68
g57
g46
sg59
(lp69
S'aaaaaa'
p70
asg62
S'Wed Nov 25 14:26:14 2015'
p71
ssg12
I0
sg13
F1448432774.064
sg14
F1448432774.064
sg15
I00
sbsS'key1'
p72
g2
(g3
g4
Ntp73
Rp74
(dp75
g8
I00
sg9
(dp76
g57
g46
sg59
(lp77
S'aaaa'
p78
asg62
S'Wed Nov 25 14:26:07 2015'
p79
ssg12
I0
sg13
F1448432767.039
sg14
F1448432767.039
sg15
I00
sbsg11
g2
(g3
g4
Ntp80
Rp81
(dp82
g8
I00
sg9
(dp83
g57
Nsg59
(lp84
g1
asg62
S'Wed Nov 25 14:25:44 2015'
p85
ssg12
I0
sg13
F1448432744.695
sg14
F1448432744.695
sg15
I00
sbsS'key7'
p86
g2
(g3
g4
Ntp87
Rp88
(dp89
g8
I00
sg9
(dp90
S'content'
p91
S'\r\n\xe2\x95\xad\xef\xb8\xbf\xef\xb8\xbf\xef\xb8\xbf\xe2\x95\xae \r\n{/ o  o /}  \r\n ( (oo) )   \r\n  \xef\xb8\xb6 \xef\xb8\xb6\xef\xb8\xb6'
p92
sS'time'
p93
S'Wed Nov 25 14:27:53 2015'
p94
sS'tags'
p95
(lp96
S'a'
p97
assg12
I0
sg13
F1448432873.886
sg14
F1448432873.886
sg15
I00
sbsS'key6'
p98
g2
(g3
g4
Ntp99
Rp100
(dp101
g8
I00
sg9
(dp102
g91
S'\xe5\x95\x8a\xe5\x95\x8a\r\n\r\n\r\n\r\n\r\n\r\n\r\n\r\n\r\n\r\n\r\n\r\n\r\n\r\n\r\n'
p103
sg93
S'Wed Nov 25 14:27:37 2015'
p104
sg95
(lp105
S'NULL'
p106
assg12
I0
sg13
F1448432857.495
sg14
F1448432857.495
sg15
I00
sbsS'key5'
p107
g2
(g3
g4
Ntp108
Rp109
(dp110
g8
I00
sg9
(dp111
g91
S'\xe4\xb8\xad\xe6\x96\x87'
p112
sg93
S'Wed Nov 25 14:27:25 2015'
p113
sg95
(lp114
g106
assg12
I0
sg13
F1448432845.106
sg14
F1448432845.106
sg15
I00
sbsS'key4'
p115
g2
(g3
g4
Ntp116
Rp117
(dp118
g8
I00
sg9
(dp119
g57
S'\xe4\xb8\xad\xe6\x96\x87'
p120
sg59
(lp121
g61
asg62
S'Wed Nov 25 14:26:27 2015'
p122
ssg12
I0
sg13
F1448432787.204
sg14
F1448432787.204
sg15
I00
sbsg78
g2
(g3
g4
Ntp123
Rp124
(dp125
g8
I00
sg9
(lp126
g72
asg12
I0
sg13
F1448432767.039
sg14
F1448432767.039
sg15
I00
sbsS'key30'
p127
g2
(g3
g4
Ntp128
Rp129
(dp130
g8
I00
sg9
(dp131
S'content'
p132
S'2015\xe5\xb9\xb411\xe6\x9c\x8825\xe6\x97\xa5'
p133
sS'tags'
p134
(lp135
S'11112015\xe5\xb9\xb411\xe6\x9c\x8825\xe6\x97\xa5'
p136
asS'time'
p137
S'2015\xe5\xb9\xb411\xe6\x9c\x8825\xe6\x97\xa5 15:26:46'
p138
ssg12
I0
sg13
F1448436406.109
sg14
F1448436406.109
sg15
I00
sbsS'key33'
p139
g2
(g3
g4
Ntp140
Rp141
(dp142
g8
I00
sg9
(dp143
g132
S'2015\xe5\xb9\xb411\xe6\x9c\x8825\xe6\x97\xa5'
p144
sg134
(lp145
S'11112015\xe5\xb9\xb411\xe6\x9c\x8825\xe6\x97\xa5'
p146
asg137
S'2015\xe5\xb9\xb411\xe6\x9c\x8825\xe6\x97\xa5 15:28:59'
p147
ssg12
I0
sg13
F1448436539.598
sg14
F1448436539.598
sg15
I00
sbsS'key32'
p148
g2
(g3
g4
Ntp149
Rp150
(dp151
g8
I00
sg9
(dp152
g132
S'2015\xe5\xb9\xb411\xe6\x9c\x8825\xe6\x97\xa5'
p153
sg134
(lp154
S'11112015\xe5\xb9\xb411\xe6\x9c\x8825\xe6\x97\xa5'
p155
asg137
S'2015\xe5\xb9\xb411\xe6\x9c\x8825\xe6\x97\xa5 15:28:57'
p156
ssg12
I0
sg13
F1448436537.279
sg14
F1448436537.279
sg15
I00
sbsS'111'
p157
g2
(g3
g4
Ntp158
Rp159
(dp160
g8
I00
sg9
(lp161
S'key15'
p162
aS'key34'
p163
asg12
I0
sg13
F1448436552.166
sg14
F1448436552.166
sg15
I00
sbsg163
g2
(g3
g4
Ntp164
Rp165
(dp166
g8
I00
sg9
(dp167
g132
S'\xe5\x95\xa6\xe5\x95\xa6\xe5\x95\xa6'
p168
sg134
(lp169
S'111'
p170
asg137
S'2015\xe5\xb9\xb411\xe6\x9c\x8825\xe6\x97\xa5 15:29:12'
p171
ssg12
I0
sg13
F1448436552.166
sg14
F1448436552.166
sg15
I00
sbsS'key37'
p172
g2
(g3
g4
Ntp173
Rp174
(dp175
g8
I00
sg9
(dp176
S'content'
p177
S'DELETE'
p178
sS'time'
p179
S'2015\xe5\xb9\xb411\xe6\x9c\x8825\xe6\x97\xa5 15:31:55'
p180
sS'tags'
p181
(lp182
S'NULL'
p183
assg12
I0
sg13
F1448436715.39
sg14
F1448436715.39
sg15
I00
sbsS'key18'
p184
g2
(g3
g4
Ntp185
Rp186
(dp187
g8
I00
sg9
(dp188
g45
g46
sg47
S'Wed Nov 25 15:12:22 2015'
p189
sg49
(lp190
g51
assg12
I0
sg13
F1448435542.185
sg14
F1448435542.185
sg15
I00
sbsS'key17'
p191
g2
(g3
g4
Ntp192
Rp193
(dp194
g8
I00
sg9
(dp195
g45
g46
sg47
S'Wed Nov 25 15:12:21 2015'
p196
sg49
(lp197
g51
assg12
I0
sg13
F1448435541.166
sg14
F1448435541.166
sg15
I00
sbsS'key16'
p198
g2
(g3
g4
Ntp199
Rp200
(dp201
g8
I00
sg9
(dp202
g45
g46
sg47
S'Wed Nov 25 15:12:20 2015'
p203
sg49
(lp204
g51
assg12
I0
sg13
F1448435540.124
sg14
F1448435540.124
sg15
I00
sbsg162
g2
(g3
g4
Ntp205
Rp206
(dp207
g8
I00
sg9
(dp208
g45
S'2015\xe5\xb9\xb411\xe6\x9c\x8825\xe6\x97\xa5'
p209
sg47
S'Wed Nov 25 15:12:09 2015'
p210
sg49
(lp211
g157
assg12
I0
sg13
F1448435529.421
sg14
F1448435529.421
sg15
I00
sbsS'key14'
p212
g2
(g3
g4
Ntp213
Rp214
(dp215
g8
I00
sg9
(dp216
S'content'
p217
S"\r\n            \\\\\r\n             \\\\_\r\n          .---(')\r\n        o( )_-\\_"
p218
sS'tags'
p219
(lp220
S'NULL'
p221
asS'time'
p222
S'Wed Nov 25 14:37:35 2015'
p223
ssg12
I0
sg13
F1448433455.409
sg14
F1448433455.409
sg15
I00
sbsS'key13'
p224
g2
(g3
g4
Ntp225
Rp226
(dp227
g8
I00
sg9
(dp228
S'content'
p229
S'\r\n                    /^\\/^\\\r\n                  _|__|  O|\r\n         \\/     /~     \\_/ \\\r\n          \\____|__________/  \\\r\n                 \\_______      \\\r\n                         `\\     \\                 \\\r\n                           |     |                  \\\r\n                          /      /                    \\\r\n                         /     /                       \\\\\r\n                       /      /                         \\ \\\r\n                      /     /                            \\  \\\r\n                    /     /             _----_            \\   \\\r\n                   /     /           _-~      ~-_         |   |\r\n                  (      (        _-~    _--_    ~-_     _/   |\r\n                   \\      ~-____-~    _-~    ~-_    ~-_-~    /\r\n                     ~-_           _-~          ~-_       _-~   \r\n                        ~--______-~                ~-___-~'
p230
sS'time'
p231
S'Wed Nov 25 14:35:44 2015'
p232
sS'tags'
p233
(lp234
S'NULL'
p235
assg12
I0
sg13
F1448433344.807
sg14
F1448433344.807
sg15
I00
sbsS'key12'
p236
g2
(g3
g4
Ntp237
Rp238
(dp239
g8
I00
sg9
(dp240
g21
S'\r\n                    /^\\/^\\\r\n                  _|__|  O|\r\n         \\/     /~     \\_/ \\\r\n          \\____|__________/  \\\r\n                 \\_______      \\\r\n                         `\\     \\                 \\\r\n                           |     |                  \\\r\n                          /      /                    \\\r\n                         /     /                       \\\\\r\n                       /      /                         \\ \\\r\n                      /     /                            \\  \\\r\n                    /     /             _----_            \\   \\\r\n                   /     /           _-~      ~-_         |   |\r\n                  (      (        _-~    _--_    ~-_     _/   |\r\n                   \\      ~-____-~    _-~    ~-_    ~-_-~    /\r\n                     ~-_           _-~          ~-_       _-~   \r\n                        ~--______-~                ~-___-~'
p241
sg23
(lp242
g25
asg26
S'Wed Nov 25 14:33:37 2015'
p243
ssg12
I0
sg13
F1448433217.655
sg14
F1448433217.655
sg15
I00
sbsS'key11'
p244
g2
(g3
g4
Ntp245
Rp246
(dp247
g8
I00
sg9
(dp248
g21
S"\r\n            \\\\\r\n             \\\\_\r\n          .---(')\r\n        o( )_-\\_"
p249
sg23
(lp250
g25
asg26
S'Wed Nov 25 14:33:31 2015'
p251
ssg12
I0
sg13
F1448433211.35
sg14
F1448433211.35
sg15
I00
sbsS'key10'
p252
g2
(g3
g4
Ntp253
Rp254
(dp255
g8
I00
sg9
(dp256
g21
S'\xe4\xb8\xad\xe6\x96\x87'
p257
sg23
(lp258
g25
asg26
S'Wed Nov 25 14:33:00 2015'
p259
ssg12
I0
sg13
F1448433180.064
sg14
F1448433180.064
sg15
I00
sbsS'1'
p260
g2
(g3
g4
Ntp261
Rp262
(dp263
g8
I00
sg9
(lp264
S'key26'
p265
aS'key27'
p266
asg12
I0
sg13
F1448435924.448
sg14
F1448435924.448
sg15
I00
sbsg61
g2
(g3
g4
Ntp267
Rp268
(dp269
g8
I00
sg9
(lp270
g52
ag115
ag107
ag98
ag28
ag16
ag252
ag244
ag236
ag224
ag212
ag198
ag191
ag184
ag40
aS'key20'
p271
aS'key21'
p272
aS'key22'
p273
aS'key35'
p274
aS'key36'
p275
ag172
aS'key38'
p276
aS'key39'
p277
aS'key40'
p278
aS'key41'
p279
aS'key42'
p280
aS'key43'
p281
aS'key45'
p282
asg12
I0
sg13
F1448439609.665
sg14
F1448439609.665
sg15
I00
sbsg275
g2
(g3
g4
Ntp283
Rp284
(dp285
g8
I00
sg9
(dp286
g132
S'DELETE'
p287
sg134
(lp288
S'NULL'
p289
asg137
S'2015\xe5\xb9\xb411\xe6\x9c\x8825\xe6\x97\xa5 15:30:08'
p290
ssg12
I0
sg13
F1448436608.827
sg14
F1448436608.827
sg15
I00
sbsg70
g2
(g3
g4
Ntp291
Rp292
(dp293
g8
I00
sg9
(lp294
g64
asg12
I0
sg13
F1448432774.064
sg14
F1448432774.064
sg15
I00
sbsg277
g2
(g3
g4
Ntp295
Rp296
(dp297
g8
I00
sg9
(dp298
g177
S'DELETE'
p299
sg179
S'2015\xe5\xb9\xb411\xe6\x9c\x8825\xe6\x97\xa5 16:04:14'
p300
sg181
(lp301
g183
assg12
I0
sg13
F1448438654.598
sg14
F1448438654.598
sg15
I00
sbsg273
g2
(g3
g4
Ntp302
Rp303
(dp304
g8
I00
sg9
(dp305
g45
g46
sg47
S'Wed Nov 25 15:12:32 2015'
p306
sg49
(lp307
g51
assg12
I0
sg13
F1448435552.145
sg14
F1448435552.145
sg15
I00
sbsg281
g2
(g3
g4
Ntp308
Rp309
(dp310
g8
I00
sg9
(dp311
g177
S'DELETE'
p312
sg179
S'2015\xe5\xb9\xb411\xe6\x9c\x8825\xe6\x97\xa5 16:13:15'
p313
sg181
(lp314
g183
assg12
I0
sg13
F1448439195.602
sg14
F1448439195.602
sg15
I00
sbsS'11112015\xe5\xb9\xb411\xe6\x9c\x8825\xe6\x97\xa5'
p315
g2
(g3
g4
Ntp316
Rp317
(dp318
g8
I00
sg9
(lp319
S'key29'
p320
ag127
aS'key31'
p321
ag148
ag139
asg12
I0
sg13
F1448436539.598
sg14
F1448436539.598
sg15
I00
sbsS'1111'
p322
g2
(g3
g4
Ntp323
Rp324
(dp325
g8
I00
sg9
(lp326
S'key28'
p327
asg12
I0
sg13
F1448435967.89
sg14
F1448435967.89
sg15
I00
sbsg265
g2
(g3
g4
Ntp328
Rp329
(dp330
g8
I00
sg9
(dp331
S'content'
p332
S'mm'
p333
sS'tags'
p334
(lp335
g260
asS'time'
p336
S'2015\xe5\xb9\xb411\xe6\x9c\x8825\xe6\x97\xa5 15:18:39'
p337
ssg12
I0
sg13
F1448435919.659
sg14
F1448435919.659
sg15
I00
sbsg276
g2
(g3
g4
Ntp338
Rp339
(dp340
g8
I00
sg9
(dp341
g177
S'DELETE'
p342
sg179
S'2015\xe5\xb9\xb411\xe6\x9c\x8825\xe6\x97\xa5 15:37:37'
p343
sg181
(lp344
g183
assg12
I0
sg13
F1448437057.459
sg14
F1448437057.459
sg15
I00
sbsS'key23'
p345
g2
(g3
g4
Ntp346
Rp347
(dp348
g8
I00
sg9
(dp349
g45
S"\r\n     _____                 &&&&_) )\r\n   \\/,---<                &&&&&&\\ \\\r\n   ( )c~c~~@~@            )- - &&\\ \\\r\n    C   >/                \\<   |&/ \r\n     \\_O/ - \xe5\x93\x87\xe5\xa1\x9e          _`*-'_/ /\r\n   ,- >o<-.              / ____ _/\r\n  /   \\/   \\            / /\\  _)_)\r\n / /|  | |\\ \\          / /  )   |\r\n \\ \\|  | |/ /          \\ \\ /    |\r\n  \\_\\  | |_/            \\ \\_    |\r\n  /_/`___|_\\            /_/\\____|\r\n    |  | |                  \\  \\|\r\n    |  | |                   `. )\r\n    |  | |                   / /\r\n    |__|_|_                 /_/|\r\n    (____)_)                |\\_\\_"
p350
sg47
S'Wed Nov 25 15:13:46 2015'
p351
sg49
(lp352
S'mm'
p353
assg12
I0
sg13
F1448435626.956
sg14
F1448435626.956
sg15
I00
sbsg271
g2
(g3
g4
Ntp354
Rp355
(dp356
g8
I00
sg9
(dp357
g45
g46
sg47
S'Wed Nov 25 15:12:29 2015'
p358
sg49
(lp359
g51
assg12
I0
sg13
F1448435549.495
sg14
F1448435549.495
sg15
I00
sbsg272
g2
(g3
g4
Ntp360
Rp361
(dp362
g8
I00
sg9
(dp363
g45
g46
sg47
S'Wed Nov 25 15:12:30 2015'
p364
sg49
(lp365
g51
assg12
I0
sg13
F1448435550.919
sg14
F1448435550.919
sg15
I00
sbsg278
g2
(g3
g4
Ntp366
Rp367
(dp368
g8
I00
sg9
(dp369
g177
Nsg179
S'2015\xe5\xb9\xb411\xe6\x9c\x8825\xe6\x97\xa5 16:12:31'
p370
sg181
(lp371
g183
assg12
I0
sg13
F1448439151.235
sg14
F1448439151.235
sg15
I00
sbsg266
g2
(g3
g4
Ntp372
Rp373
(dp374
g8
I00
sg9
(dp375
g332
S'mm'
p376
sg334
(lp377
S'1'
p378
asg336
S'2015\xe5\xb9\xb411\xe6\x9c\x8825\xe6\x97\xa5 15:18:44'
p379
ssg12
I0
sg13
F1448435924.448
sg14
F1448435924.448
sg15
I00
sbsS'key24'
p380
g2
(g3
g4
Ntp381
Rp382
(dp383
g8
I00
sg9
(dp384
g332
S"\r\n     _____                 &&&&_) )\r\n   \\/,---<                &&&&&&\\ \\\r\n   ( )c~c~~@~@            )- - &&\\ \\\r\n    C   >/                \\<   |&/ \r\n     \\_O/ - \xe5\x93\x87\xe5\xa1\x9e          _`*-'_/ /\r\n   ,- >o<-.              / ____ _/\r\n  /   \\/   \\            / /\\  _)_)\r\n / /|  | |\\ \\          / /  )   |\r\n \\ \\|  | |/ /          \\ \\ /    |\r\n  \\_\\  | |_/            \\ \\_    |\r\n  /_/`___|_\\            /_/\\____|\r\n    |  | |                  \\  \\|\r\n    |  | |                   `. )\r\n    |  | |                   / /\r\n    |__|_|_                 /_/|\r\n    (____)_)                |\\_\\_"
p385
sg334
(lp386
S'mm'
p387
asg336
S'2015\xe5\xb9\xb411\xe6\x9c\x8825\xe6\x97\xa5 15:18:16'
p388
ssg12
I0
sg13
F1448435896.29
sg14
F1448435896.29
sg15
I00
sbsS'key25'
p389
g2
(g3
g4
Ntp390
Rp391
(dp392
g8
I00
sg9
(dp393
g332
S'\xe5\xa6\xb9\xe5\xa6\xb9\r\n'
p394
sg334
(lp395
S'mm'
p396
asg336
S'2015\xe5\xb9\xb411\xe6\x9c\x8825\xe6\x97\xa5 15:18:30'
p397
ssg12
I0
sg13
F1448435910.406
sg14
F1448435910.406
sg15
I00
sbsS'globalvar_id'
p398
g2
(g3
g4
Ntp399
Rp400
(dp401
g8
I00
sg9
I46
sg12
I0
sg13
F1448439609.665
sg14
F1448439609.665
sg15
I00
sbsg327
g2
(g3
g4
Ntp402
Rp403
(dp404
g8
I00
sg9
(dp405
g332
S'2015\xe5\xb9\xb411\xe6\x9c\x8825\xe6\x97\xa5'
p406
sg334
(lp407
g322
asg336
S'2015\xe5\xb9\xb411\xe6\x9c\x8825\xe6\x97\xa5 15:19:27'
p408
ssg12
I0
sg13
F1448435967.89
sg14
F1448435967.89
sg15
I00
sbsg320
g2
(g3
g4
Ntp409
Rp410
(dp411
g8
I00
sg9
(dp412
g332
S'2015\xe5\xb9\xb411\xe6\x9c\x8825\xe6\x97\xa5'
p413
sg334
(lp414
g315
asg336
S'2015\xe5\xb9\xb411\xe6\x9c\x8825\xe6\x97\xa5 15:20:33'
p415
ssg12
I0
sg13
F1448436033.506
sg14
F1448436033.506
sg15
I00
sbsS'key44'
p416
g2
(g3
g4
Ntp417
Rp418
(dp419
g8
I00
sg9
(dp420
S'content'
p421
NsS'tags'
p422
(lp423
S'<1>'
p424
asS'time'
p425
S'2015\xe5\xb9\xb411\xe6\x9c\x8825\xe6\x97\xa5 16:19:12'
p426
ssg12
I0
sg13
F1448439552.434
sg14
F1448439552.434
sg15
I00
sbsg97
g2
(g3
g4
Ntp427
Rp428
(dp429
g8
I00
sg9
(lp430
g86
asg12
I0
sg13
F1448432873.886
sg14
F1448432873.886
sg15
I00
sbsg321
g2
(g3
g4
Ntp431
Rp432
(dp433
g8
I00
sg9
(dp434
g132
S'2015\xe5\xb9\xb411\xe6\x9c\x8825\xe6\x97\xa5'
p435
sg134
(lp436
S'11112015\xe5\xb9\xb411\xe6\x9c\x8825\xe6\x97\xa5'
p437
asg137
S'2015\xe5\xb9\xb411\xe6\x9c\x8825\xe6\x97\xa5 15:27:58'
p438
ssg12
I0
sg13
F1448436478.682
sg14
F1448436478.682
sg15
I00
sbsg280
g2
(g3
g4
Ntp439
Rp440
(dp441
g8
I00
sg9
(dp442
g177
S'DELETE'
p443
sg179
S'2015\xe5\xb9\xb411\xe6\x9c\x8825\xe6\x97\xa5 16:12:48'
p444
sg181
(lp445
g183
assg12
I0
sg13
F1448439168.924
sg14
F1448439168.924
sg15
I00
sbsg282
g2
(g3
g4
Ntp446
Rp447
(dp448
g8
I00
sg9
(dp449
g421
Nsg422
(lp450
S'NULL'
p451
asg425
S'2015\xe5\xb9\xb411\xe6\x9c\x8825\xe6\x97\xa5 16:20:09'
p452
ssg12
I0
sg13
F1448439609.665
sg14
F1448439609.665
sg15
I00
sbsg353
g2
(g3
g4
Ntp453
Rp454
(dp455
g8
I00
sg9
(lp456
g345
ag380
ag389
asg12
I0
sg13
F1448435910.406
sg14
F1448435910.406
sg15
I00
sbsS'globalvar_traffic'
p457
g2
(g3
g4
Ntp458
Rp459
(dp460
g8
I00
sg9
I73
sg12
I0
sg13
F1448439614.111
sg14
F1448439614.111
sg15
I00
sbsg424
g2
(g3
g4
Ntp461
Rp462
(dp463
g8
I00
sg9
(lp464
g416
asg12
I0
sg13
F1448439552.434
sg14
F1448439552.434
sg15
I00
sbsg274
g2
(g3
g4
Ntp465
Rp466
(dp467
g8
I00
sg9
(dp468
g132
S'DELETE'
p469
sg134
(lp470
g289
asg137
S'2015\xe5\xb9\xb411\xe6\x9c\x8825\xe6\x97\xa5 15:29:58'
p471
ssg12
I0
sg13
F1448436598.867
sg14
F1448436598.867
sg15
I00
sbsg279
g2
(g3
g4
Ntp472
Rp473
(dp474
g8
I00
sg9
(dp475
g177
Nsg179
S'2015\xe5\xb9\xb411\xe6\x9c\x8825\xe6\x97\xa5 16:12:44'
p476
sg181
(lp477
g183
assg12
I0
sg13
F1448439164.22
sg14
F1448439164.22
sg15
I00
sbs.