(dp0
S'globalvar_id'
p1
ccopy_reg
_reconstructor
p2
(csae.kvdb
_CacheEntry
p3
c__builtin__
object
p4
Ntp5
Rp6
(dp7
S'locked'
p8
I00
sS'value'
p9
I0
sS'flags'
p10
I0
sS'expiration'
p11
F1448333508.054
sS'created_time'
p12
F1448333508.054
sS'will_expire'
p13
I00
sbsS'globalvar_traffic'
p14
g2
(g3
g4
Ntp15
Rp16
(dp17
g8
I00
sg9
I0
sg10
I0
sg11
F1448333508.054
sg12
F1448333508.054
sg13
I00
sbs.